(dp1
S'output'
p2
S"<class 'sqlite3.IntegrityError'> FOREIGN KEY constraint failed"
p3
sS'layer'
p4
S'/Users/tatrickporal/Desktop/CMPS183/web2py/applications/web2py_start/controllers/default.py'
p5
sS'code'
p6
S'<code object <module> at 0x10bb17cb0, file "/Users/tatrickporal/Desktop/CMPS183/web2py/applications/web2py_start/controllers/default.py", line 11>'
p7
sS'snapshot'
p8
(dp9
S'exception'
p10
(dp11
S'__module__'
p12
S"'sqlite3'"
p13
sS'__getslice__'
p14
S"<method-wrapper '__getslice__' of IntegrityError object>"
p15
sS'__str__'
p16
S"<method-wrapper '__str__' of IntegrityError object>"
p17
sS'__reduce__'
p18
S'<built-in method __reduce__ of IntegrityError object>'
p19
sS'__dict__'
p20
S'{}'
p21
sS'__sizeof__'
p22
S'<built-in method __sizeof__ of IntegrityError object>'
p23
sS'__weakref__'
p24
S'None'
p25
sS'message'
p26
S"'FOREIGN KEY constraint failed'"
p27
sS'__init__'
p28
S"<method-wrapper '__init__' of IntegrityError object>"
p29
sS'__setattr__'
p30
S"<method-wrapper '__setattr__' of IntegrityError object>"
p31
sS'__reduce_ex__'
p32
S'<built-in method __reduce_ex__ of IntegrityError object>'
p33
sS'__new__'
p34
S'<built-in method __new__ of type object>'
p35
sS'__format__'
p36
S'<built-in method __format__ of IntegrityError object>'
p37
sS'__class__'
p38
S"<class 'sqlite3.IntegrityError'>"
p39
sS'__doc__'
p40
S'None'
p41
sS'__getitem__'
p42
S"<method-wrapper '__getitem__' of IntegrityError object>"
p43
sS'__setstate__'
p44
S'<built-in method __setstate__ of IntegrityError object>'
p45
sS'__getattribute__'
p46
S"<method-wrapper '__getattribute__' of IntegrityError object>"
p47
sS'args'
p48
S"('FOREIGN KEY constraint failed',)"
p49
sS'__subclasshook__'
p50
S'<built-in method __subclasshook__ of type object>'
p51
sS'__unicode__'
p52
S'<built-in method __unicode__ of IntegrityError object>'
p53
sS'__delattr__'
p54
S"<method-wrapper '__delattr__' of IntegrityError object>"
p55
sS'__repr__'
p56
S"<method-wrapper '__repr__' of IntegrityError object>"
p57
sS'__hash__'
p58
S"<method-wrapper '__hash__' of IntegrityError object>"
p59
ssS'evalue'
p60
S'FOREIGN KEY constraint failed'
p61
sS'request'
p62
cgluon.html
XML_unpickle
p63
(S's-\x9c\x00\x00<div><table><tr><td style="font-weight:bold;vertical-align:top;">ajax</td><td style="vertical-align:top;">:</td><td><div>False</div></td></tr><tr><td style="font-weight:bold;vertical-align:top;">application</td><td style="vertical-align:top;">:</td><td><div>web2py_start</div></td></tr><tr><td style="font-weight:bold;vertical-align:top;">args</td><td style="vertical-align:top;">:</td><td><div><table></table></div></td></tr><tr><td style="font-weight:bold;vertical-align:top;">cid</td><td style="vertical-align:top;">:</td><td><div>None</div></td></tr><tr><td style="font-weight:bold;vertical-align:top;">client</td><td style="vertical-align:top;">:</td><td><div>127.0.0.1</div></td></tr><tr><td style="font-weight:bold;vertical-align:top;">controller</td><td style="vertical-align:top;">:</td><td><div>default</div></td></tr><tr><td style="font-weight:bold;vertical-align:top;">cookies</td><td style="vertical-align:top;">:</td><td><div><table><tr><td style="font-weight:bold;vertical-align:top;">PGADMIN_KEY</td><td style="vertical-align:top;">:</td><td><div>3c9f1a58-a955-4e3b-a338-090f396cfb3d<table><tr><td style="font-weight:bold;vertical-align:top;">comment</td><td style="vertical-align:top;">:</td><td><div></div></td></tr><tr><td style="font-weight:bold;vertical-align:top;">domain</td><td style="vertical-align:top;">:</td><td><div></div></td></tr><tr><td style="font-weight:bold;vertical-align:top;">expires</td><td style="vertical-align:top;">:</td><td><div></div></td></tr><tr><td style="font-weight:bold;vertical-align:top;">httponly</td><td style="vertical-align:top;">:</td><td><div></div></td></tr><tr><td style="font-weight:bold;vertical-align:top;">max-age</td><td style="vertical-align:top;">:</td><td><div></div></td></tr><tr><td style="font-weight:bold;vertical-align:top;">path</td><td style="vertical-align:top;">:</td><td><div></div></td></tr><tr><td style="font-weight:bold;vertical-align:top;">samesite</td><td style="vertical-align:top;">:</td><td><div></div></td></tr><tr><td style="font-weight:bold;vertical-align:top;">secure</td><td style="vertical-align:top;">:</td><td><div></div></td></tr><tr><td style="font-weight:bold;vertical-align:top;">version</td><td style="vertical-align:top;">:</td><td><div></div></td></tr></table></div></td></tr><tr><td style="font-weight:bold;vertical-align:top;">PGADMIN_LANGUAGE</td><td style="vertical-align:top;">:</td><td><div>en<table><tr><td style="font-weight:bold;vertical-align:top;">comment</td><td style="vertical-align:top;">:</td><td><div></div></td></tr><tr><td style="font-weight:bold;vertical-align:top;">domain</td><td style="vertical-align:top;">:</td><td><div></div></td></tr><tr><td style="font-weight:bold;vertical-align:top;">expires</td><td style="vertical-align:top;">:</td><td><div></div></td></tr><tr><td style="font-weight:bold;vertical-align:top;">httponly</td><td style="vertical-align:top;">:</td><td><div></div></td></tr><tr><td style="font-weight:bold;vertical-align:top;">max-age</td><td style="vertical-align:top;">:</td><td><div></div></td></tr><tr><td style="font-weight:bold;vertical-align:top;">path</td><td style="vertical-align:top;">:</td><td><div></div></td></tr><tr><td style="font-weight:bold;vertical-align:top;">samesite</td><td style="vertical-align:top;">:</td><td><div></div></td></tr><tr><td style="font-weight:bold;vertical-align:top;">secure</td><td style="vertical-align:top;">:</td><td><div></div></td></tr><tr><td style="font-weight:bold;vertical-align:top;">version</td><td style="vertical-align:top;">:</td><td><div></div></td></tr></table></div></td></tr><tr><td style="font-weight:bold;vertical-align:top;">session_id_admin</td><td style="vertical-align:top;">:</td><td><div>127.0.0.1-26716606-4046-479f-af45-dec1a395932b<table><tr><td style="font-weight:bold;vertical-align:top;">comment</td><td style="vertical-align:top;">:</td><td><div></div></td></tr><tr><td style="font-weight:bold;vertical-align:top;">domain</td><td style="vertical-align:top;">:</td><td><div></div></td></tr><tr><td style="font-weight:bold;vertical-align:top;">expires</td><td style="vertical-align:top;">:</td><td><div></div></td></tr><tr><td style="font-weight:bold;vertical-align:top;">httponly</td><td style="vertical-align:top;">:</td><td><div></div></td></tr><tr><td style="font-weight:bold;vertical-align:top;">max-age</td><td style="vertical-align:top;">:</td><td><div></div></td></tr><tr><td style="font-weight:bold;vertical-align:top;">path</td><td style="vertical-align:top;">:</td><td><div></div></td></tr><tr><td style="font-weight:bold;vertical-align:top;">samesite</td><td style="vertical-align:top;">:</td><td><div></div></td></tr><tr><td style="font-weight:bold;vertical-align:top;">secure</td><td style="vertical-align:top;">:</td><td><div></div></td></tr><tr><td style="font-weight:bold;vertical-align:top;">version</td><td style="vertical-align:top;">:</td><td><div></div></td></tr></table></div></td></tr><tr><td style="font-weight:bold;vertical-align:top;">session_id_hw3_review6</td><td style="vertical-align:top;">:</td><td><div>2:97163985-4afb-4fe4-a519-cf867aefefe5<table><tr><td style="font-weight:bold;vertical-align:top;">comment</td><td style="vertical-align:top;">:</td><td><div></div></td></tr><tr><td style="font-weight:bold;vertical-align:top;">domain</td><td style="vertical-align:top;">:</td><td><div></div></td></tr><tr><td style="font-weight:bold;vertical-align:top;">expires</td><td style="vertical-align:top;">:</td><td><div></div></td></tr><tr><td style="font-weight:bold;vertical-align:top;">httponly</td><td style="vertical-align:top;">:</td><td><div></div></td></tr><tr><td style="font-weight:bold;vertical-align:top;">max-age</td><td style="vertical-align:top;">:</td><td><div></div></td></tr><tr><td style="font-weight:bold;vertical-align:top;">path</td><td style="vertical-align:top;">:</td><td><div></div></td></tr><tr><td style="font-weight:bold;vertical-align:top;">samesite</td><td style="vertical-align:top;">:</td><td><div></div></td></tr><tr><td style="font-weight:bold;vertical-align:top;">secure</td><td style="vertical-align:top;">:</td><td><div></div></td></tr><tr><td style="font-weight:bold;vertical-align:top;">version</td><td style="vertical-align:top;">:</td><td><div></div></td></tr></table></div></td></tr><tr><td style="font-weight:bold;vertical-align:top;">session_id_hw4_1</td><td style="vertical-align:top;">:</td><td><div>2:c11a6d97-eb08-4a7a-9434-1f53ff87f5ef<table><tr><td style="font-weight:bold;vertical-align:top;">comment</td><td style="vertical-align:top;">:</td><td><div></div></td></tr><tr><td style="font-weight:bold;vertical-align:top;">domain</td><td style="vertical-align:top;">:</td><td><div></div></td></tr><tr><td style="font-weight:bold;vertical-align:top;">expires</td><td style="vertical-align:top;">:</td><td><div></div></td></tr><tr><td style="font-weight:bold;vertical-align:top;">httponly</td><td style="vertical-align:top;">:</td><td><div></div></td></tr><tr><td style="font-weight:bold;vertical-align:top;">max-age</td><td style="vertical-align:top;">:</td><td><div></div></td></tr><tr><td style="font-weight:bold;vertical-align:top;">path</td><td style="vertical-align:top;">:</td><td><div></div></td></tr><tr><td style="font-weight:bold;vertical-align:top;">samesite</td><td style="vertical-align:top;">:</td><td><div></div></td></tr><tr><td style="font-weight:bold;vertical-align:top;">secure</td><td style="vertical-align:top;">:</td><td><div></div></td></tr><tr><td style="font-weight:bold;vertical-align:top;">version</td><td style="vertical-align:top;">:</td><td><div></div></td></tr></table></div></td></tr><tr><td style="font-weight:bold;vertical-align:top;">session_id_hw4_2</td><td style="vertical-align:top;">:</td><td><div>1:8ec3fa0a-92b7-46c5-a506-8d2f9ddbb4b2<table><tr><td style="font-weight:bold;vertical-align:top;">comment</td><td style="vertical-align:top;">:</td><td><div></div></td></tr><tr><td style="font-weight:bold;vertical-align:top;">domain</td><td style="vertical-align:top;">:</td><td><div></div></td></tr><tr><td style="font-weight:bold;vertical-align:top;">expires</td><td style="vertical-align:top;">:</td><td><div></div></td></tr><tr><td style="font-weight:bold;vertical-align:top;">httponly</td><td style="vertical-align:top;">:</td><td><div></div></td></tr><tr><td style="font-weight:bold;vertical-align:top;">max-age</td><td style="vertical-align:top;">:</td><td><div></div></td></tr><tr><td style="font-weight:bold;vertical-align:top;">path</td><td style="vertical-align:top;">:</td><td><div></div></td></tr><tr><td style="font-weight:bold;vertical-align:top;">samesite</td><td style="vertical-align:top;">:</td><td><div></div></td></tr><tr><td style="font-weight:bold;vertical-align:top;">secure</td><td style="vertical-align:top;">:</td><td><div></div></td></tr><tr><td style="font-weight:bold;vertical-align:top;">version</td><td style="vertical-align:top;">:</td><td><div></div></td></tr></table></div></td></tr><tr><td style="font-weight:bold;vertical-align:top;">session_id_hw4_3</td><td style="vertical-align:top;">:</td><td><div>2:c6f49634-ee39-4944-a0ca-0eeac40292e1<table><tr><td style="font-weight:bold;vertical-align:top;">comment</td><td style="vertical-align:top;">:</td><td><div></div></td></tr><tr><td style="font-weight:bold;vertical-align:top;">domain</td><td style="vertical-align:top;">:</td><td><div></div></td></tr><tr><td style="font-weight:bold;vertical-align:top;">expires</td><td style="vertical-align:top;">:</td><td><div></div></td></tr><tr><td style="font-weight:bold;vertical-align:top;">httponly</td><td style="vertical-align:top;">:</td><td><div></div></td></tr><tr><td style="font-weight:bold;vertical-align:top;">max-age</td><td style="vertical-align:top;">:</td><td><div></div></td></tr><tr><td style="font-weight:bold;vertical-align:top;">path</td><td style="vertical-align:top;">:</td><td><div></div></td></tr><tr><td style="font-weight:bold;vertical-align:top;">samesite</td><td style="vertical-align:top;">:</td><td><div></div></td></tr><tr><td style="font-weight:bold;vertical-align:top;">secure</td><td style="vertical-align:top;">:</td><td><div></div></td></tr><tr><td style="font-weight:bold;vertical-align:top;">version</td><td style="vertical-align:top;">:</td><td><div></div></td></tr></table></div></td></tr><tr><td style="font-weight:bold;vertical-align:top;">session_id_hw4_4</td><td style="vertical-align:top;">:</td><td><div>2:04e1dc1f-86a4-4295-9338-780f4d09b711<table><tr><td style="font-weight:bold;vertical-align:top;">comment</td><td style="vertical-align:top;">:</td><td><div></div></td></tr><tr><td style="font-weight:bold;vertical-align:top;">domain</td><td style="vertical-align:top;">:</td><td><div></div></td></tr><tr><td style="font-weight:bold;vertical-align:top;">expires</td><td style="vertical-align:top;">:</td><td><div></div></td></tr><tr><td style="font-weight:bold;vertical-align:top;">httponly</td><td style="vertical-align:top;">:</td><td><div></div></td></tr><tr><td style="font-weight:bold;vertical-align:top;">max-age</td><td style="vertical-align:top;">:</td><td><div></div></td></tr><tr><td style="font-weight:bold;vertical-align:top;">path</td><td style="vertical-align:top;">:</td><td><div></div></td></tr><tr><td style="font-weight:bold;vertical-align:top;">samesite</td><td style="vertical-align:top;">:</td><td><div></div></td></tr><tr><td style="font-weight:bold;vertical-align:top;">secure</td><td style="vertical-align:top;">:</td><td><div></div></td></tr><tr><td style="font-weight:bold;vertical-align:top;">version</td><td style="vertical-align:top;">:</td><td><div></div></td></tr></table></div></td></tr><tr><td style="font-weight:bold;vertical-align:top;">session_id_hw4_5</td><td style="vertical-align:top;">:</td><td><div>127.0.0.1-6729fb19-f9b3-4714-ad39-758daeaa3364<table><tr><td style="font-weight:bold;vertical-align:top;">comment</td><td style="vertical-align:top;">:</td><td><div></div></td></tr><tr><td style="font-weight:bold;vertical-align:top;">domain</td><td style="vertical-align:top;">:</td><td><div></div></td></tr><tr><td style="font-weight:bold;vertical-align:top;">expires</td><td style="vertical-align:top;">:</td><td><div></div></td></tr><tr><td style="font-weight:bold;vertical-align:top;">httponly</td><td style="vertical-align:top;">:</td><td><div></div></td></tr><tr><td style="font-weight:bold;vertical-align:top;">max-age</td><td style="vertical-align:top;">:</td><td><div></div></td></tr><tr><td style="font-weight:bold;vertical-align:top;">path</td><td style="vertical-align:top;">:</td><td><div></div></td></tr><tr><td style="font-weight:bold;vertical-align:top;">samesite</td><td style="vertical-align:top;">:</td><td><div></div></td></tr><tr><td style="font-weight:bold;vertical-align:top;">secure</td><td style="vertical-align:top;">:</td><td><div></div></td></tr><tr><td style="font-weight:bold;vertical-align:top;">version</td><td style="vertical-align:top;">:</td><td><div></div></td></tr></table></div></td></tr><tr><td style="font-weight:bold;vertical-align:top;">session_id_start</td><td style="vertical-align:top;">:</td><td><div>6:81f24247-c5b5-4600-ae6e-bbfa541b365a<table><tr><td style="font-weight:bold;vertical-align:top;">comment</td><td style="vertical-align:top;">:</td><td><div></div></td></tr><tr><td style="font-weight:bold;vertical-align:top;">domain</td><td style="vertical-align:top;">:</td><td><div></div></td></tr><tr><td style="font-weight:bold;vertical-align:top;">expires</td><td style="vertical-align:top;">:</td><td><div></div></td></tr><tr><td style="font-weight:bold;vertical-align:top;">httponly</td><td style="vertical-align:top;">:</td><td><div></div></td></tr><tr><td style="font-weight:bold;vertical-align:top;">max-age</td><td style="vertical-align:top;">:</td><td><div></div></td></tr><tr><td style="font-weight:bold;vertical-align:top;">path</td><td style="vertical-align:top;">:</td><td><div></div></td></tr><tr><td style="font-weight:bold;vertical-align:top;">samesite</td><td style="vertical-align:top;">:</td><td><div></div></td></tr><tr><td style="font-weight:bold;vertical-align:top;">secure</td><td style="vertical-align:top;">:</td><td><div></div></td></tr><tr><td style="font-weight:bold;vertical-align:top;">version</td><td style="vertical-align:top;">:</td><td><div></div></td></tr></table></div></td></tr><tr><td style="font-weight:bold;vertical-align:top;">session_id_web2py_start</td><td style="vertical-align:top;">:</td><td><div>82:f68700cd-e3c4-430b-a484-18e9a223608f<table><tr><td style="font-weight:bold;vertical-align:top;">comment</td><td style="vertical-align:top;">:</td><td><div></div></td></tr><tr><td style="font-weight:bold;vertical-align:top;">domain</td><td style="vertical-align:top;">:</td><td><div></div></td></tr><tr><td style="font-weight:bold;vertical-align:top;">expires</td><td style="vertical-align:top;">:</td><td><div></div></td></tr><tr><td style="font-weight:bold;vertical-align:top;">httponly</td><td style="vertical-align:top;">:</td><td><div></div></td></tr><tr><td style="font-weight:bold;vertical-align:top;">max-age</td><td style="vertical-align:top;">:</td><td><div></div></td></tr><tr><td style="font-weight:bold;vertical-align:top;">path</td><td style="vertical-align:top;">:</td><td><div></div></td></tr><tr><td style="font-weight:bold;vertical-align:top;">samesite</td><td style="vertical-align:top;">:</td><td><div></div></td></tr><tr><td style="font-weight:bold;vertical-align:top;">secure</td><td style="vertical-align:top;">:</td><td><div></div></td></tr><tr><td style="font-weight:bold;vertical-align:top;">version</td><td style="vertical-align:top;">:</td><td><div></div></td></tr></table></div></td></tr><tr><td style="font-weight:bold;vertical-align:top;">session_id_welcome</td><td style="vertical-align:top;">:</td><td><div>127.0.0.1-57f3c6d0-5c93-4a20-889c-8a31c96c0caf<table><tr><td style="font-weight:bold;vertical-align:top;">comment</td><td style="vertical-align:top;">:</td><td><div></div></td></tr><tr><td style="font-weight:bold;vertical-align:top;">domain</td><td style="vertical-align:top;">:</td><td><div></div></td></tr><tr><td style="font-weight:bold;vertical-align:top;">expires</td><td style="vertical-align:top;">:</td><td><div></div></td></tr><tr><td style="font-weight:bold;vertical-align:top;">httponly</td><td style="vertical-align:top;">:</td><td><div></div></td></tr><tr><td style="font-weight:bold;vertical-align:top;">max-age</td><td style="vertical-align:top;">:</td><td><div></div></td></tr><tr><td style="font-weight:bold;vertical-align:top;">path</td><td style="vertical-align:top;">:</td><td><div></div></td></tr><tr><td style="font-weight:bold;vertical-align:top;">samesite</td><td style="vertical-align:top;">:</td><td><div></div></td></tr><tr><td style="font-weight:bold;vertical-align:top;">secure</td><td style="vertical-align:top;">:</td><td><div></div></td></tr><tr><td style="font-weight:bold;vertical-align:top;">version</td><td style="vertical-align:top;">:</td><td><div></div></td></tr></table></div></td></tr></table></div></td></tr><tr><td style="font-weight:bold;vertical-align:top;">env</td><td style="vertical-align:top;">:</td><td><div><table><tr><td style="font-weight:bold;vertical-align:top;">CONTENT_LENGTH</td><td style="vertical-align:top;">:</td><td><div>699</div></td></tr><tr><td style="font-weight:bold;vertical-align:top;">CONTENT_TYPE</td><td style="vertical-align:top;">:</td><td><div>multipart/form-data; boundary=----WebKitFormBoundaryAK3N2OGeKmZVzPzM</div></td></tr><tr><td style="font-weight:bold;vertical-align:top;">HTTP_ACCEPT</td><td style="vertical-align:top;">:</td><td><div>text/html,application/xhtml+xml,application/xml;q=0.9,image/webp,image/apng,*/*;q=0.8,application/signed-exchange;v=b3</div></td></tr><tr><td style="font-weight:bold;vertical-align:top;">HTTP_ACCEPT_ENCODING</td><td style="vertical-align:top;">:</td><td><div>gzip, deflate, br</div></td></tr><tr><td style="font-weight:bold;vertical-align:top;">HTTP_ACCEPT_LANGUAGE</td><td style="vertical-align:top;">:</td><td><div>en-US,en;q=0.9</div></td></tr><tr><td style="font-weight:bold;vertical-align:top;">HTTP_CACHE_CONTROL</td><td style="vertical-align:top;">:</td><td><div>max-age=0</div></td></tr><tr><td style="font-weight:bold;vertical-align:top;">HTTP_CONNECTION</td><td style="vertical-align:top;">:</td><td><div>keep-alive</div></td></tr><tr><td style="font-weight:bold;vertical-align:top;">HTTP_CONTENT_LENGTH</td><td style="vertical-align:top;">:</td><td><div>699</div></td></tr><tr><td style="font-weight:bold;vertical-align:top;">HTTP_CONTENT_TYPE</td><td style="vertical-align:top;">:</td><td><div>multipart/form-data; boundary=----WebKitFormBoundaryAK3N2OGeKmZVzPzM</div></td></tr><tr><td style="font-weight:bold;vertical-align:top;">HTTP_COOKIE</td><td style="vertical-align:top;">:</td><td><div>session_id_admin=127.0.0.1-26716606-4046-479f-af45-dec1a395932b; session_id_hw4_2=&quot;1:8ec3fa0a-92b7-46c5-a506-8d2f9ddbb4b2&quot;; session_id_hw4_3=&quot;2:c6f49634-ee39-4944-a0ca-0eeac40292e1&quot;; PGADMIN_KEY=3c9f1a58-a955-4e3b-a338-090f396cfb3d; PGADMIN_LANGUAGE=en; session_id_start=&quot;6:81f24247-c5b5-4600-ae6e-bbfa541b365a&quot;; session_id_hw4_5=127.0.0.1-6729fb19-f9b3-4714-ad39-758daeaa3364; session_id_hw3_review6=&quot;2:97163985-4afb-4fe4-a519-cf867aefefe5&quot;; session_id_hw4_1=&quot;2:c11a6d97-eb08-4a7a-9434-1f53ff87f5ef&quot;; session_id_hw4_4=&quot;2:04e1dc1f-86a4-4295-9338-780f4d09b711&quot;; session_id_web2py_start=&quot;82:f68700cd-e3c4-430b-a484-18e9a223608f&quot;; session_id_welcome=127.0.0.1-57f3c6d0-5c93-4a20-889c-8a31c96c0caf</div></td></tr><tr><td style="font-weight:bold;vertical-align:top;">HTTP_HOST</td><td style="vertical-align:top;">:</td><td><div>127.0.0.1:8000</div></td></tr><tr><td style="font-weight:bold;vertical-align:top;">HTTP_ORIGIN</td><td style="vertical-align:top;">:</td><td><div>http://127.0.0.1:8000</div></td></tr><tr><td style="font-weight:bold;vertical-align:top;">HTTP_REFERER</td><td style="vertical-align:top;">:</td><td><div>http://127.0.0.1:8000/web2py_start/default/sell</div></td></tr><tr><td style="font-weight:bold;vertical-align:top;">HTTP_UPGRADE_INSECURE_REQUESTS</td><td style="vertical-align:top;">:</td><td><div>1</div></td></tr><tr><td style="font-weight:bold;vertical-align:top;">HTTP_USER_AGENT</td><td style="vertical-align:top;">:</td><td><div>Mozilla/5.0 (Macintosh; Intel Mac OS X 10_13_6) AppleWebKit/537.36 (KHTML, like Gecko) Chrome/74.0.3729.169 Safari/537.36</div></td></tr><tr><td style="font-weight:bold;vertical-align:top;">PATH_INFO</td><td style="vertical-align:top;">:</td><td><div>/web2py_start/default/sell</div></td></tr><tr><td style="font-weight:bold;vertical-align:top;">QUERY_STRING</td><td style="vertical-align:top;">:</td><td><div></div></td></tr><tr><td style="font-weight:bold;vertical-align:top;">REMOTE_ADDR</td><td style="vertical-align:top;">:</td><td><div>127.0.0.1</div></td></tr><tr><td style="font-weight:bold;vertical-align:top;">REMOTE_PORT</td><td style="vertical-align:top;">:</td><td><div>55306</div></td></tr><tr><td style="font-weight:bold;vertical-align:top;">REQUEST_METHOD</td><td style="vertical-align:top;">:</td><td><div>POST</div></td></tr><tr><td style="font-weight:bold;vertical-align:top;">SCRIPT_NAME</td><td style="vertical-align:top;">:</td><td><div></div></td></tr><tr><td style="font-weight:bold;vertical-align:top;">SERVER_NAME</td><td style="vertical-align:top;">:</td><td><div>Patricks-Comp.local</div></td></tr><tr><td style="font-weight:bold;vertical-align:top;">SERVER_PORT</td><td style="vertical-align:top;">:</td><td><div>8000</div></td></tr><tr><td style="font-weight:bold;vertical-align:top;">SERVER_PROTOCOL</td><td style="vertical-align:top;">:</td><td><div>HTTP/1.1</div></td></tr><tr><td style="font-weight:bold;vertical-align:top;">SERVER_SOFTWARE</td><td style="vertical-align:top;">:</td><td><div>Rocket 1.2.6</div></td></tr><tr><td style="font-weight:bold;vertical-align:top;">app_folders</td><td style="vertical-align:top;">:</td><td><div>set([&#x27;/Users/tatrickporal/Desktop/CMPS183/web2py/applications/admin&#x27;, &#x27;/Users/tatrickporal/Desktop/CMPS183/web2py/applications/web2py_start&#x27;, &#x27;/Users/tatrickporal/Desktop/CMPS183/web2py/applications/welcome&#x27;])</div></td></tr><tr><td style="font-weight:bold;vertical-align:top;">applications_parent</td><td style="vertical-align:top;">:</td><td><div>/Users/tatrickporal/Desktop/CMPS183/web2py</div></td></tr><tr><td style="font-weight:bold;vertical-align:top;">cmd_args</td><td style="vertical-align:top;">:</td><td><div><table></table></div></td></tr><tr><td style="font-weight:bold;vertical-align:top;">cmd_options</td><td style="vertical-align:top;">:</td><td><div>&lt;Values at 0x107a44518: {&#x27;verbose&#x27;: False, &#x27;ip&#x27;: &#x27;127.0.0.1&#x27;, &#x27;debuglevel&#x27;: 30, &#x27;with_scheduler&#x27;: False, &#x27;shutdown_timeout&#x27;: 5, &#x27;taskbar&#x27;: False, &#x27;with_coverage&#x27;: False, &#x27;pid_filename&#x27;: &#x27;httpserver.pid&#x27;, &#x27;maxthreads&#x27;: None, &#x27;softcron&#x27;: False, &#x27;server_name&#x27;: &#x27;Patricks-Comp.local&#x27;, &#x27;bpython&#x27;: False, &#x27;nogui&#x27;: False, &#x27;port&#x27;: 8000, &#x27;print_errors&#x27;: True, &#x27;extcron&#x27;: False, &#x27;runcron&#x27;: False, &#x27;run_system_tests&#x27;: False, &#x27;test&#x27;: None, &#x27;folder&#x27;: &#x27;/Users/tatrickporal/Desktop/CMPS183/web2py&#x27;, &#x27;config&#x27;: &#x27;&#x27;, &#x27;minthreads&#x27;: None, &#x27;shell&#x27;: None, &#x27;run&#x27;: &#x27;&#x27;, &#x27;log_filename&#x27;: &#x27;httpserver.log&#x27;, &#x27;profiler_dir&#x27;: None, &#x27;args&#x27;: [], &#x27;socket_timeout&#x27;: 5, &#x27;ssl_ca_certificate&#x27;: None, &#x27;scheduler&#x27;: None, &#x27;interfaces&#x27;: None, &#x27;ssl_private_key&#x27;: &#x27;&#x27;, &#x27;gae&#x27;: None, &#x27;password&#x27;: &#x27;******&#x27;, &#x27;request_queue_size&#x27;: 5, &#x27;ssl_certificate&#x27;: &#x27;&#x27;, &#x27;cronjob&#x27;: False, &#x27;numthreads&#x27;: None, &#x27;quiet&#x27;: False, &#x27;import_models&#x27;: False, &#x27;timeout&#x27;: 10, &#x27;plain&#x27;: False, &#x27;nobanner&#x27;: False}&gt;</div></td></tr><tr><td style="font-weight:bold;vertical-align:top;">content_length</td><td style="vertical-align:top;">:</td><td><div>699</div></td></tr><tr><td style="font-weight:bold;vertical-align:top;">content_type</td><td style="vertical-align:top;">:</td><td><div>multipart/form-data; boundary=----WebKitFormBoundaryAK3N2OGeKmZVzPzM</div></td></tr><tr><td style="font-weight:bold;vertical-align:top;">db_sessions</td><td style="vertical-align:top;">:</td><td><div>set([&#x27;web2py_start&#x27;])</div></td></tr><tr><td style="font-weight:bold;vertical-align:top;">debugging</td><td style="vertical-align:top;">:</td><td><div>False</div></td></tr><tr><td style="font-weight:bold;vertical-align:top;">gluon_parent</td><td style="vertical-align:top;">:</td><td><div>/Users/tatrickporal/Desktop/CMPS183/web2py</div></td></tr><tr><td style="font-weight:bold;vertical-align:top;">http_accept</td><td style="vertical-align:top;">:</td><td><div>text/html,application/xhtml+xml,application/xml;q=0.9,image/webp,image/apng,*/*;q=0.8,application/signed-exchange;v=b3</div></td></tr><tr><td style="font-weight:bold;vertical-align:top;">http_accept_encoding</td><td style="vertical-align:top;">:</td><td><div>gzip, deflate, br</div></td></tr><tr><td style="font-weight:bold;vertical-align:top;">http_accept_language</td><td style="vertical-align:top;">:</td><td><div>en-US,en;q=0.9</div></td></tr><tr><td style="font-weight:bold;vertical-align:top;">http_cache_control</td><td style="vertical-align:top;">:</td><td><div>max-age=0</div></td></tr><tr><td style="font-weight:bold;vertical-align:top;">http_connection</td><td style="vertical-align:top;">:</td><td><div>keep-alive</div></td></tr><tr><td style="font-weight:bold;vertical-align:top;">http_content_length</td><td style="vertical-align:top;">:</td><td><div>699</div></td></tr><tr><td style="font-weight:bold;vertical-align:top;">http_content_type</td><td style="vertical-align:top;">:</td><td><div>multipart/form-data; boundary=----WebKitFormBoundaryAK3N2OGeKmZVzPzM</div></td></tr><tr><td style="font-weight:bold;vertical-align:top;">http_cookie</td><td style="vertical-align:top;">:</td><td><div>session_id_admin=127.0.0.1-26716606-4046-479f-af45-dec1a395932b; session_id_hw4_2=&quot;1:8ec3fa0a-92b7-46c5-a506-8d2f9ddbb4b2&quot;; session_id_hw4_3=&quot;2:c6f49634-ee39-4944-a0ca-0eeac40292e1&quot;; PGADMIN_KEY=3c9f1a58-a955-4e3b-a338-090f396cfb3d; PGADMIN_LANGUAGE=en; session_id_start=&quot;6:81f24247-c5b5-4600-ae6e-bbfa541b365a&quot;; session_id_hw4_5=127.0.0.1-6729fb19-f9b3-4714-ad39-758daeaa3364; session_id_hw3_review6=&quot;2:97163985-4afb-4fe4-a519-cf867aefefe5&quot;; session_id_hw4_1=&quot;2:c11a6d97-eb08-4a7a-9434-1f53ff87f5ef&quot;; session_id_hw4_4=&quot;2:04e1dc1f-86a4-4295-9338-780f4d09b711&quot;; session_id_web2py_start=&quot;82:f68700cd-e3c4-430b-a484-18e9a223608f&quot;; session_id_welcome=127.0.0.1-57f3c6d0-5c93-4a20-889c-8a31c96c0caf</div></td></tr><tr><td style="font-weight:bold;vertical-align:top;">http_host</td><td style="vertical-align:top;">:</td><td><div>127.0.0.1:8000</div></td></tr><tr><td style="font-weight:bold;vertical-align:top;">http_origin</td><td style="vertical-align:top;">:</td><td><div>http://127.0.0.1:8000</div></td></tr><tr><td style="font-weight:bold;vertical-align:top;">http_referer</td><td style="vertical-align:top;">:</td><td><div>http://127.0.0.1:8000/web2py_start/default/sell</div></td></tr><tr><td style="font-weight:bold;vertical-align:top;">http_upgrade_insecure_requests</td><td style="vertical-align:top;">:</td><td><div>1</div></td></tr><tr><td style="font-weight:bold;vertical-align:top;">http_user_agent</td><td style="vertical-align:top;">:</td><td><div>Mozilla/5.0 (Macintosh; Intel Mac OS X 10_13_6) AppleWebKit/537.36 (KHTML, like Gecko) Chrome/74.0.3729.169 Safari/537.36</div></td></tr><tr><td style="font-weight:bold;vertical-align:top;">is_jython</td><td style="vertical-align:top;">:</td><td><div>False</div></td></tr><tr><td style="font-weight:bold;vertical-align:top;">is_py2</td><td style="vertical-align:top;">:</td><td><div>True</div></td></tr><tr><td style="font-weight:bold;vertical-align:top;">is_pypy</td><td style="vertical-align:top;">:</td><td><div>False</div></td></tr><tr><td style="font-weight:bold;vertical-align:top;">is_source</td><td style="vertical-align:top;">:</td><td><div>True</div></td></tr><tr><td style="font-weight:bold;vertical-align:top;">local_hosts</td><td style="vertical-align:top;">:</td><td><div><table><tr><td><div>::ffff:127.0.0.1</div></td></tr><tr><td><div>::1</div></td></tr><tr><td><div>fe80::cbf:fd54:c34e:25f8%en0</div></td></tr><tr><td><div>Patricks-Comp.local</div></td></tr><tr><td><div>192.168.0.36</div></td></tr><tr><td><div>127.0.0.1</div></td></tr><tr><td><div>2601:647:cb02:7260:cc2:5525:adc0:3206</div></td></tr></table></div></td></tr><tr><td style="font-weight:bold;vertical-align:top;">path_info</td><td style="vertical-align:top;">:</td><td><div>/web2py_start/default/sell</div></td></tr><tr><td style="font-weight:bold;vertical-align:top;">query_string</td><td style="vertical-align:top;">:</td><td><div></div></td></tr><tr><td style="font-weight:bold;vertical-align:top;">remote_addr</td><td style="vertical-align:top;">:</td><td><div>127.0.0.1</div></td></tr><tr><td style="font-weight:bold;vertical-align:top;">remote_port</td><td style="vertical-align:top;">:</td><td><div>55306</div></td></tr><tr><td style="font-weight:bold;vertical-align:top;">request_method</td><td style="vertical-align:top;">:</td><td><div>POST</div></td></tr><tr><td style="font-weight:bold;vertical-align:top;">request_uri</td><td style="vertical-align:top;">:</td><td><div>/web2py_start/default/sell</div></td></tr><tr><td style="font-weight:bold;vertical-align:top;">script_name</td><td style="vertical-align:top;">:</td><td><div></div></td></tr><tr><td style="font-weight:bold;vertical-align:top;">server_name</td><td style="vertical-align:top;">:</td><td><div>Patricks-Comp.local</div></td></tr><tr><td style="font-weight:bold;vertical-align:top;">server_port</td><td style="vertical-align:top;">:</td><td><div>8000</div></td></tr><tr><td style="font-weight:bold;vertical-align:top;">server_protocol</td><td style="vertical-align:top;">:</td><td><div>HTTP/1.1</div></td></tr><tr><td style="font-weight:bold;vertical-align:top;">server_software</td><td style="vertical-align:top;">:</td><td><div>Rocket 1.2.6</div></td></tr><tr><td style="font-weight:bold;vertical-align:top;">web2py_path</td><td style="vertical-align:top;">:</td><td><div>/Users/tatrickporal/Desktop/CMPS183/web2py</div></td></tr><tr><td style="font-weight:bold;vertical-align:top;">web2py_version</td><td style="vertical-align:top;">:</td><td><div>2.18.5-stable+timestamp.2019.04.08.04.22.03</div></td></tr><tr><td style="font-weight:bold;vertical-align:top;">wsgi.errors</td><td style="vertical-align:top;">:</td><td><div>&lt;open file &#x27;&lt;stderr&gt;&#x27;, mode &#x27;w&#x27; at 0x1057451e0&gt;</div></td></tr><tr><td style="font-weight:bold;vertical-align:top;">wsgi.file_wrapper</td><td style="vertical-align:top;">:</td><td><div>&lt;class wsgiref.util.FileWrapper at 0x1071ebe20&gt;</div></td></tr><tr><td style="font-weight:bold;vertical-align:top;">wsgi.input</td><td style="vertical-align:top;">:</td><td><div>&lt;socket._fileobject object at 0x10d8ec450&gt;</div></td></tr><tr><td style="font-weight:bold;vertical-align:top;">wsgi.multiprocess</td><td style="vertical-align:top;">:</td><td><div>False</div></td></tr><tr><td style="font-weight:bold;vertical-align:top;">wsgi.multithread</td><td style="vertical-align:top;">:</td><td><div>True</div></td></tr><tr><td style="font-weight:bold;vertical-align:top;">wsgi.run_once</td><td style="vertical-align:top;">:</td><td><div>False</div></td></tr><tr><td style="font-weight:bold;vertical-align:top;">wsgi.url_scheme</td><td style="vertical-align:top;">:</td><td><div>http</div></td></tr><tr><td style="font-weight:bold;vertical-align:top;">wsgi.version</td><td style="vertical-align:top;">:</td><td><div><table><tr><td><div>1</div></td></tr><tr><td><div>0</div></td></tr></table></div></td></tr><tr><td style="font-weight:bold;vertical-align:top;">wsgi_errors</td><td style="vertical-align:top;">:</td><td><div>&lt;open file &#x27;&lt;stderr&gt;&#x27;, mode &#x27;w&#x27; at 0x1057451e0&gt;</div></td></tr><tr><td style="font-weight:bold;vertical-align:top;">wsgi_file_wrapper</td><td style="vertical-align:top;">:</td><td><div>&lt;class wsgiref.util.FileWrapper at 0x1071ebe20&gt;</div></td></tr><tr><td style="font-weight:bold;vertical-align:top;">wsgi_input</td><td style="vertical-align:top;">:</td><td><div>&lt;socket._fileobject object at 0x10d8ec450&gt;</div></td></tr><tr><td style="font-weight:bold;vertical-align:top;">wsgi_multiprocess</td><td style="vertical-align:top;">:</td><td><div>False</div></td></tr><tr><td style="font-weight:bold;vertical-align:top;">wsgi_multithread</td><td style="vertical-align:top;">:</td><td><div>True</div></td></tr><tr><td style="font-weight:bold;vertical-align:top;">wsgi_run_once</td><td style="vertical-align:top;">:</td><td><div>False</div></td></tr><tr><td style="font-weight:bold;vertical-align:top;">wsgi_url_scheme</td><td style="vertical-align:top;">:</td><td><div>http</div></td></tr><tr><td style="font-weight:bold;vertical-align:top;">wsgi_version</td><td style="vertical-align:top;">:</td><td><div><table><tr><td><div>1</div></td></tr><tr><td><div>0</div></td></tr></table></div></td></tr></table></div></td></tr><tr><td style="font-weight:bold;vertical-align:top;">extension</td><td style="vertical-align:top;">:</td><td><div>html</div></td></tr><tr><td style="font-weight:bold;vertical-align:top;">folder</td><td style="vertical-align:top;">:</td><td><div>/Users/tatrickporal/Desktop/CMPS183/web2py/applications/web2py_start</div></td></tr><tr><td style="font-weight:bold;vertical-align:top;">function</td><td style="vertical-align:top;">:</td><td><div>sell</div></td></tr><tr><td style="font-weight:bold;vertical-align:top;">global_settings</td><td style="vertical-align:top;">:</td><td><div><table><tr><td style="font-weight:bold;vertical-align:top;">app_folders</td><td style="vertical-align:top;">:</td><td><div>set([&#x27;/Users/tatrickporal/Desktop/CMPS183/web2py/applications/admin&#x27;, &#x27;/Users/tatrickporal/Desktop/CMPS183/web2py/applications/web2py_start&#x27;, &#x27;/Users/tatrickporal/Desktop/CMPS183/web2py/applications/welcome&#x27;])</div></td></tr><tr><td style="font-weight:bold;vertical-align:top;">applications_parent</td><td style="vertical-align:top;">:</td><td><div>/Users/tatrickporal/Desktop/CMPS183/web2py</div></td></tr><tr><td style="font-weight:bold;vertical-align:top;">cmd_args</td><td style="vertical-align:top;">:</td><td><div><table></table></div></td></tr><tr><td style="font-weight:bold;vertical-align:top;">cmd_options</td><td style="vertical-align:top;">:</td><td><div>&lt;Values at 0x107a44518: {&#x27;verbose&#x27;: False, &#x27;ip&#x27;: &#x27;127.0.0.1&#x27;, &#x27;debuglevel&#x27;: 30, &#x27;with_scheduler&#x27;: False, &#x27;shutdown_timeout&#x27;: 5, &#x27;taskbar&#x27;: False, &#x27;with_coverage&#x27;: False, &#x27;pid_filename&#x27;: &#x27;httpserver.pid&#x27;, &#x27;maxthreads&#x27;: None, &#x27;softcron&#x27;: False, &#x27;server_name&#x27;: &#x27;Patricks-Comp.local&#x27;, &#x27;bpython&#x27;: False, &#x27;nogui&#x27;: False, &#x27;port&#x27;: 8000, &#x27;print_errors&#x27;: True, &#x27;extcron&#x27;: False, &#x27;runcron&#x27;: False, &#x27;run_system_tests&#x27;: False, &#x27;test&#x27;: None, &#x27;folder&#x27;: &#x27;/Users/tatrickporal/Desktop/CMPS183/web2py&#x27;, &#x27;config&#x27;: &#x27;&#x27;, &#x27;minthreads&#x27;: None, &#x27;shell&#x27;: None, &#x27;run&#x27;: &#x27;&#x27;, &#x27;log_filename&#x27;: &#x27;httpserver.log&#x27;, &#x27;profiler_dir&#x27;: None, &#x27;args&#x27;: [], &#x27;socket_timeout&#x27;: 5, &#x27;ssl_ca_certificate&#x27;: None, &#x27;scheduler&#x27;: None, &#x27;interfaces&#x27;: None, &#x27;ssl_private_key&#x27;: &#x27;&#x27;, &#x27;gae&#x27;: None, &#x27;password&#x27;: &#x27;******&#x27;, &#x27;request_queue_size&#x27;: 5, &#x27;ssl_certificate&#x27;: &#x27;&#x27;, &#x27;cronjob&#x27;: False, &#x27;numthreads&#x27;: None, &#x27;quiet&#x27;: False, &#x27;import_models&#x27;: False, &#x27;timeout&#x27;: 10, &#x27;plain&#x27;: False, &#x27;nobanner&#x27;: False}&gt;</div></td></tr><tr><td style="font-weight:bold;vertical-align:top;">db_sessions</td><td style="vertical-align:top;">:</td><td><div>set([&#x27;web2py_start&#x27;])</div></td></tr><tr><td style="font-weight:bold;vertical-align:top;">debugging</td><td style="vertical-align:top;">:</td><td><div>False</div></td></tr><tr><td style="font-weight:bold;vertical-align:top;">gluon_parent</td><td style="vertical-align:top;">:</td><td><div>/Users/tatrickporal/Desktop/CMPS183/web2py</div></td></tr><tr><td style="font-weight:bold;vertical-align:top;">is_jython</td><td style="vertical-align:top;">:</td><td><div>False</div></td></tr><tr><td style="font-weight:bold;vertical-align:top;">is_py2</td><td style="vertical-align:top;">:</td><td><div>True</div></td></tr><tr><td style="font-weight:bold;vertical-align:top;">is_pypy</td><td style="vertical-align:top;">:</td><td><div>False</div></td></tr><tr><td style="font-weight:bold;vertical-align:top;">is_source</td><td style="vertical-align:top;">:</td><td><div>True</div></td></tr><tr><td style="font-weight:bold;vertical-align:top;">local_hosts</td><td style="vertical-align:top;">:</td><td><div><table><tr><td><div>::ffff:127.0.0.1</div></td></tr><tr><td><div>::1</div></td></tr><tr><td><div>fe80::cbf:fd54:c34e:25f8%en0</div></td></tr><tr><td><div>Patricks-Comp.local</div></td></tr><tr><td><div>192.168.0.36</div></td></tr><tr><td><div>127.0.0.1</div></td></tr><tr><td><div>2601:647:cb02:7260:cc2:5525:adc0:3206</div></td></tr></table></div></td></tr><tr><td style="font-weight:bold;vertical-align:top;">web2py_version</td><td style="vertical-align:top;">:</td><td><div>2.18.5-stable+timestamp.2019.04.08.04.22.03</div></td></tr></table></div></td></tr><tr><td style="font-weight:bold;vertical-align:top;">is_https</td><td style="vertical-align:top;">:</td><td><div>False</div></td></tr><tr><td style="font-weight:bold;vertical-align:top;">is_local</td><td style="vertical-align:top;">:</td><td><div>True</div></td></tr><tr><td style="font-weight:bold;vertical-align:top;">is_restful</td><td style="vertical-align:top;">:</td><td><div>False</div></td></tr><tr><td style="font-weight:bold;vertical-align:top;">is_scheduler</td><td style="vertical-align:top;">:</td><td><div>False</div></td></tr><tr><td style="font-weight:bold;vertical-align:top;">is_shell</td><td style="vertical-align:top;">:</td><td><div>False</div></td></tr><tr><td style="font-weight:bold;vertical-align:top;">method</td><td style="vertical-align:top;">:</td><td><div>POST</div></td></tr><tr><td style="font-weight:bold;vertical-align:top;">now</td><td style="vertical-align:top;">:</td><td><div>datetime.datetime(2019, 7, 21, 22, 11, 1, 22121)</div></td></tr><tr><td style="font-weight:bold;vertical-align:top;">raw_args</td><td style="vertical-align:top;">:</td><td><div></div></td></tr><tr><td style="font-weight:bold;vertical-align:top;">raw_extension</td><td style="vertical-align:top;">:</td><td><div>None</div></td></tr><tr><td style="font-weight:bold;vertical-align:top;">url</td><td style="vertical-align:top;">:</td><td><div>/web2py_start/default/sell</div></td></tr><tr><td style="font-weight:bold;vertical-align:top;">utcnow</td><td style="vertical-align:top;">:</td><td><div>datetime.datetime(2019, 7, 22, 5, 11, 1, 22133)</div></td></tr><tr><td style="font-weight:bold;vertical-align:top;">wsgi</td><td style="vertical-align:top;">:</td><td><div>&lt;gluon.main.LazyWSGI object at 0x10bb055d0&gt;</div></td></tr></table></div>'
tRp64
sS'frames'
p65
(lp66
(dp67
S'file'
p68
S'/Users/tatrickporal/Desktop/CMPS183/web2py/gluon/restricted.py'
p69
sS'dump'
p70
(dp71
S'environment'
p72
S"{'A': <class 'gluon.html.A'>, 'ANY_OF': <class 'pydal.validators.ANY_OF'>, 'ASSIGNJS': <function ASSIGNJS>, 'AppConfig': <function AppConfig>, 'Auth': <class 'gluon.tools.Auth'>, 'B': <class 'gluon.html.B'>, 'BEAUTIFY': <class 'gluon.html.BEAUTIFY'>, 'BODY': <class 'gluon.html.BODY'>, 'BR': <class 'gluon.html.BR'>, 'BUTTON': <class 'gluon.html.BUTTON'>, ...}"
p73
sS'ccode'
p74
S'<code object <module> at 0x10bb17cb0, file "/Use...ns/web2py_start/controllers/default.py", line 11>'
p75
ssS'lnum'
p76
I219
sS'lines'
p77
(dp78
I214
S'    if environment is None:'
p79
sI215
S'        environment = {}'
p80
sI216
S"    environment['__file__'] = layer"
p81
sI217
S"    environment['__name__'] = '__restricted__'"
p82
sI218
S'    try:'
p83
sI219
S'        exec(ccode, environment)'
p84
sI220
S'    except HTTP:'
p85
sI221
S'        raise'
p86
sI222
S'    except RestrictedError:'
p87
sI223
S'        # do not encapsulate (obfuscate) the original RestrictedError'
p88
ssS'call'
p89
S'(ccode=<code object <module> at 0x10bb17cb0, file "/Use...ns/web2py_start/controllers/default.py", line 11>, environment={\'A\': <class \'gluon.html.A\'>, \'ANY_OF\': <class \'pydal.validators.ANY_OF\'>, \'ASSIGNJS\': <function ASSIGNJS>, \'AppConfig\': <function AppConfig>, \'Auth\': <class \'gluon.tools.Auth\'>, \'B\': <class \'gluon.html.B\'>, \'BEAUTIFY\': <class \'gluon.html.BEAUTIFY\'>, \'BODY\': <class \'gluon.html.BODY\'>, \'BR\': <class \'gluon.html.BR\'>, \'BUTTON\': <class \'gluon.html.BUTTON\'>, ...}, layer=\'/Users/tatrickporal/Desktop/CMPS183/web2py/applications/web2py_start/controllers/default.py\', scode=<code object <module> at 0x10bb17cb0, file "/Use...ns/web2py_start/controllers/default.py", line 11>)'
p90
sS'func'
p91
S'restricted'
p92
sa(dp93
g68
S'/Users/tatrickporal/Desktop/CMPS183/web2py/applications/web2py_start/controllers/default.py'
p94
sg70
(dp95
sg76
I143
sg77
(dp96
I133
S''
sI134
S''
sI135
S'def call():'
p97
sI136
S'    """'
p98
sI137
S'    exposes services. for example:'
p99
sI138
S'    http://..../[app]/default/call/jsonrpc'
p100
sI139
S'    decorate with @services.jsonrpc the functions to expose'
p101
sI140
S'    supports xml, json, xmlrpc, jsonrpc, amfrpc, rss, csv'
p102
sI141
S'    """'
p103
sI142
S'    return service()'
p104
ssg89
S'()'
p105
sg91
S'<module>'
p106
sa(dp107
g68
S'/Users/tatrickporal/Desktop/CMPS183/web2py/gluon/globals.py'
p108
sg70
(dp109
S'self'
p110
S'undefined'
p111
sS'f'
S'<function sell>'
p112
ssg76
I421
sg77
(dp113
I416
S"        self.flash = ''            # used by the default view layout"
p114
sI417
S'        self.meta = Storage()      # used by web2py_ajax.html'
p115
sI418
S'        self.menu = []             # used by the default view layout'
p116
sI419
S'        self.files = []            # used by web2py_ajax.html'
p117
sI420
S'        self._vars = None'
p118
sI421
S'        self._caller = lambda f: f()'
p119
sI422
S'        self._view_environment = None'
p120
sI423
S'        self._custom_commit = None'
p121
sI424
S'        self._custom_rollback = None'
p122
sI425
S"        self.generic_patterns = ['*']"
p123
ssg89
S'(f=<function sell>)'
p124
sg91
S'<lambda>'
p125
sa(dp126
g68
S'/Users/tatrickporal/Desktop/CMPS183/web2py/gluon/tools.py'
p127
sg70
(dp128
S'action'
p129
S'<function sell>'
p130
sS'a'
S'()'
p131
sS'b'
g21
ssg76
I3869
sg77
(dp132
I3872
S'            f.__dict__.update(action.__dict__)'
p133
sI3873
S'            return f'
p134
sI3864
S'                    flag = condition'
p135
sI3865
S'                if not flag:'
p136
sI3866
S'                    current.session.flash = self.messages.access_denied'
p137
sI3867
S'                    return call_or_redirect('
p138
sI3868
S'                        self.settings.on_failed_authorization)'
p139
sI3869
S'                return action(*a, **b)'
p140
sI3870
S'            f.__doc__ = action.__doc__'
p141
sI3871
S'            f.__name__ = action.__name__'
p142
ssg89
S'(*a=(), **b={})'
p143
sg91
S'f'
sa(dp144
g68
S'/Users/tatrickporal/Desktop/CMPS183/web2py/applications/web2py_start/controllers/default.py'
p145
sg70
(dp146
S'form.process'
p147
S'<bound method SQLFORM.process of <gluon.sqlhtml.SQLFORM object>>'
p148
sS').accepted'
p149
g111
sS'form'
p150
S'<gluon.sqlhtml.SQLFORM object>'
p151
ssg76
I101
sg77
(dp152
I96
S''
sI97
S'@auth.requires_login()'
p153
sI98
S'def sell():'
p154
sI99
S'    """Displays the form in which the user can add a product"""'
p155
sI100
S'    form = SQLFORM(db.Product_Table)'
p156
sI101
S'    if form.process().accepted:'
p157
sI102
S"        redirect(URL('default', 'index'))"
p158
sI103
S'    logger.info("My session is: %r" % session)'
p159
sI104
S'    return dict(form=form)'
p160
sI105
S''
ssg89
S'()'
p161
sg91
S'sell'
p162
sa(dp163
g68
S'/Users/tatrickporal/Desktop/CMPS183/web2py/gluon/html.py'
p164
sg70
(dp165
S'self'
p166
S'<gluon.sqlhtml.SQLFORM object>'
p167
sS'self.validate'
p168
S'<bound method SQLFORM.validate of <gluon.sqlhtml.SQLFORM object>>'
p169
sS'kwargs'
p170
S"{'dbio': True}"
p171
ssg76
I2326
sg77
(dp172
I2321
S'                return dict(form=SQLFORM(db.table).process(onsuccess=my_callback)'
p173
sI2322
S''
sI2323
S''
sI2324
S'        """'
p174
sI2325
S"        kwargs['dbio'] = kwargs.get('dbio', True)  # necessary for SQLHTML forms"
p175
sI2326
S'        self.validate(**kwargs)'
p176
sI2327
S'        return self'
p177
sI2328
S''
sI2329
S'    REDIRECT_JS = "window.location=\'%s\';return false"'
p178
sI2330
S''
ssg89
S"(self=<gluon.sqlhtml.SQLFORM object>, **kwargs={'dbio': True})"
p179
sg91
S'process'
p180
sa(dp181
g68
S'/Users/tatrickporal/Desktop/CMPS183/web2py/gluon/html.py'
p182
sg70
(dp183
S'self'
p184
S'<gluon.sqlhtml.SQLFORM object>'
p185
sS'self.accepts'
p186
S'<bound method SQLFORM.accepts of <gluon.sqlhtml.SQLFORM object>>'
p187
sS'kwargs'
p188
S"{'dbio': True, 'request_vars': <Storage {'price': '0.00', 'product_description'...e163d226c', '_formname': 'Product_Table/create'}>, 'session': <Storage {'_auth_next': None, 'flash': None, 'au...ate]': ['3c9c93a8-24e6-4e87-ac0e-96119b4f6a64']}>}"
p189
ssg76
I2264
sg77
(dp190
I2259
S"        for key in ('message_onsuccess', 'message_onfailure', 'onsuccess',"
p191
sI2260
S"                    'onfailure', 'next', 'message_onchange', 'onchange'):"
p192
sI2261
S'            if key in kwargs:'
p193
sI2262
S'                del kwargs[key]'
p194
sI2263
S''
sI2264
S'        if self.accepts(**kwargs):'
p195
sI2265
S"            if onsuccess == 'flash':"
p196
sI2266
S'                if next:'
p197
sI2267
S'                    current.session.flash = message_onsuccess'
p198
sI2268
S'                else:'
p199
ssg89
S"(self=<gluon.sqlhtml.SQLFORM object>, **kwargs={'dbio': True, 'request_vars': <Storage {'price': '0.00', 'product_description'...e163d226c', '_formname': 'Product_Table/create'}>, 'session': <Storage {'_auth_next': None, 'flash': None, 'au...ate]': ['3c9c93a8-24e6-4e87-ac0e-96119b4f6a64']}>})"
p200
sg91
S'validate'
p201
sa(dp202
g68
S'/Users/tatrickporal/Desktop/CMPS183/web2py/gluon/sqlhtml.py'
p203
sg70
(dp204
S'self.vars.id'
p205
S'None'
p206
sS'fields'
p207
S"{'avg_rating': 0, 'date_posted': datetime.datetime(2019, 7, 22, 5, 11, 1, 146593), 'price': 0.0, 'product_description': 'What', 'product_name': 'What', 'product_owner': <Row {'username': 'apple', 'registration_id': ''... 11L, 'date_joined': datetime.date(2019, 7, 18)}>, 'total_possible_ratings': 0, 'total_ratings': 0, 'total_stock': 1}"
p208
sS'self'
p209
S'<gluon.sqlhtml.SQLFORM object>'
p210
sS'self.vars'
p211
S"<Storage {'total_stock': 1, 'price': 0.0, 'product_name': 'What', 'product_description': 'What'}>"
p212
sS'self.table.insert'
p213
S'<bound method Table.insert of <Table Product_Tab...ating, total_stock, product_owner, date_posted)>>'
p214
sS'self.table'
p215
S'<Table Product_Table (id, product_name, product_...rating, total_stock, product_owner, date_posted)>'
p216
ssg76
I1989
sg77
(dp217
I1984
S'                    self.vars.id = self.record[self.id_field_name]'
p218
sI1985
S'                    if fields:'
p219
sI1986
S'                        self.table._db(self.table._id == self.record['
p220
sI1987
S'                                       self.id_field_name]).update(**fields)'
p221
sI1988
S'                else:'
p222
sI1989
S'                    self.vars.id = self.table.insert(**fields)'
p223
sI1990
S''
sI1991
S'        self.accepted = ret'
p224
sI1992
S'        return ret'
p225
sI1993
S''
ssg89
S"(self=<gluon.sqlhtml.SQLFORM object>, request_vars=<Storage {'price': '0.00', 'product_description'...e163d226c', '_formname': 'Product_Table/create'}>, session=<Storage {'_auth_next': None, 'flash': None, 'au...ate]': ['3c9c93a8-24e6-4e87-ac0e-96119b4f6a64']}>, formname='Product_Table/create', keepvalues=False, onvalidation=None, dbio=True, hideerror=False, detect_record_change=False, **kwargs={})"
p226
sg91
S'accepts'
p227
sa(dp228
g68
S'/Users/tatrickporal/Desktop/CMPS183/web2py/gluon/packages/dal/pydal/objects.py'
p229
sg70
(dp230
S'self'
p231
S'<Table Product_Table (id, product_name, product_...rating, total_stock, product_owner, date_posted)>'
p232
sS'ret'
p233
g111
sS'row.op_values'
p234
S"<bound method OpRow.op_values of <OpRow {'total_...tetime.datetime(2019, 7, 22, 5, 11, 1, 146593)}>>"
p235
sS'self._db._adapter'
p236
S'<pydal.adapters.sqlite.SQLite object>'
p237
sS'self._db._adapter.insert'
p238
S'<bound method SQLite.insert of <pydal.adapters.sqlite.SQLite object>>'
p239
sS'self._db'
p240
S'<DAL uri="sqlite://storage.sqlite">'
p241
sS'row'
p242
S"<OpRow {'total_ratings': 0, 'total_possible_rati...atetime.datetime(2019, 7, 22, 5, 11, 1, 146593)}>"
p243
ssg76
I762
sg77
(dp244
I757
S''
sI758
S'    def insert(self, **fields):'
p245
sI759
S'        row = self._fields_and_values_for_insert(fields)'
p246
sI760
S'        if any(f(row) for f in self._before_insert):'
p247
sI761
S'            return 0'
p248
sI762
S'        ret = self._db._adapter.insert(self, row.op_values())'
p249
sI763
S'        if ret and self._after_insert:'
p250
sI764
S'            for f in self._after_insert:'
p251
sI765
S'                f(row, ret)'
p252
sI766
S'        return ret'
p253
ssg89
S"(self=<Table Product_Table (id, product_name, product_...rating, total_stock, product_owner, date_posted)>, **fields={'avg_rating': 0, 'date_posted': datetime.datetime(2019, 7, 22, 5, 11, 1, 146593), 'price': 0.0, 'product_description': 'What', 'product_name': 'What', 'product_owner': <Row {'username': 'apple', 'registration_id': ''... 11L, 'date_joined': datetime.date(2019, 7, 18)}>, 'total_possible_ratings': 0, 'total_ratings': 0, 'total_stock': 1})"
p254
sg91
S'insert'
p255
sa(dp256
g68
S'/Users/tatrickporal/Desktop/CMPS183/web2py/gluon/packages/dal/pydal/adapters/base.py'
p257
sg70
(dp258
S'e'
S"IntegrityError('FOREIGN KEY constraint failed',)"
p259
ssg76
I487
sg77
(dp260
I482
S'            self.execute(query)'
p261
sI483
S'        except:'
p262
sI484
S'            e = sys.exc_info()[1]'
p263
sI485
S"            if hasattr(table, '_on_insert_error'):"
p264
sI486
S'                return table._on_insert_error(table, fields, e)'
p265
sI487
S'            raise e'
p266
sI488
S"        if hasattr(table, '_primarykey'):"
p267
sI489
S'            pkdict = dict(['
p268
sI490
S'                (k[0].name, k[1]) for k in fields'
p269
sI491
S'                if k[0].name in table._primarykey])'
p270
ssg89
S"(self=<pydal.adapters.sqlite.SQLite object>, table=<Table Product_Table (id, product_name, product_...rating, total_stock, product_owner, date_posted)>, fields=[(<pydal.objects.Field object>, 0), (<pydal.objects.Field object>, 0), (<pydal.objects.Field object>, <Row {'username': 'apple', 'registration_id': ''... 11L, 'date_joined': datetime.date(2019, 7, 18)}>), (<pydal.objects.Field object>, 0), (<pydal.objects.Field object>, 'What'), (<pydal.objects.Field object>, 'What'), (<pydal.objects.Field object>, 0.0), (<pydal.objects.Field object>, 1), (<pydal.objects.Field object>, datetime.datetime(2019, 7, 22, 5, 11, 1, 146593))])"
p271
sg91
g255
sasS'pyver'
p272
S'Python 2.7.16: /Users/tatrickporal/anaconda3/envs/python27/bin/python (prefix: /Users/tatrickporal/anaconda3/envs/python27)'
p273
sS'session'
p274
g63
(S's\x91\n\x00\x00<div><table><tr><td style="font-weight:bold;vertical-align:top;">auth</td><td style="vertical-align:top;">:</td><td><div><table><tr><td style="font-weight:bold;vertical-align:top;">expiration</td><td style="vertical-align:top;">:</td><td><div>3600</div></td></tr><tr><td style="font-weight:bold;vertical-align:top;">hmac_key</td><td style="vertical-align:top;">:</td><td><div>f9b6d4d9-60a4-4d10-ba10-0a10969236e6</div></td></tr><tr><td style="font-weight:bold;vertical-align:top;">last_visit</td><td style="vertical-align:top;">:</td><td><div>datetime.datetime(2019, 7, 21, 22, 10, 42, 739242)</div></td></tr><tr><td style="font-weight:bold;vertical-align:top;">remember_me</td><td style="vertical-align:top;">:</td><td><div>False</div></td></tr><tr><td style="font-weight:bold;vertical-align:top;">user</td><td style="vertical-align:top;">:</td><td><div><table><tr><td style="font-weight:bold;vertical-align:top;">address</td><td style="vertical-align:top;">:</td><td><div>Apple Lane 24</div></td></tr><tr><td style="font-weight:bold;vertical-align:top;">date_joined</td><td style="vertical-align:top;">:</td><td><div>datetime.date(2019, 7, 18)</div></td></tr><tr><td style="font-weight:bold;vertical-align:top;">email</td><td style="vertical-align:top;">:</td><td><div>apple@ucsc.edu</div></td></tr><tr><td style="font-weight:bold;vertical-align:top;">first_name</td><td style="vertical-align:top;">:</td><td><div>A</div></td></tr><tr><td style="font-weight:bold;vertical-align:top;">id</td><td style="vertical-align:top;">:</td><td><div>11L</div></td></tr><tr><td style="font-weight:bold;vertical-align:top;">last_name</td><td style="vertical-align:top;">:</td><td><div>P</div></td></tr><tr><td style="font-weight:bold;vertical-align:top;">registration_id</td><td style="vertical-align:top;">:</td><td><div></div></td></tr><tr><td style="font-weight:bold;vertical-align:top;">registration_key</td><td style="vertical-align:top;">:</td><td><div></div></td></tr><tr><td style="font-weight:bold;vertical-align:top;">reset_password_key</td><td style="vertical-align:top;">:</td><td><div></div></td></tr><tr><td style="font-weight:bold;vertical-align:top;">username</td><td style="vertical-align:top;">:</td><td><div>apple</div></td></tr></table></div></td></tr><tr><td style="font-weight:bold;vertical-align:top;">user_groups</td><td style="vertical-align:top;">:</td><td><div><table><tr><td style="font-weight:bold;vertical-align:top;">11</td><td style="vertical-align:top;">:</td><td><div>user_11</div></td></tr></table></div></td></tr></table></div></td></tr><tr><td style="font-weight:bold;vertical-align:top;">flash</td><td style="vertical-align:top;">:</td><td><div>None</div></td></tr></table></div>'
tRp275
sS'etype'
p276
S"<class 'sqlite3.IntegrityError'>"
p277
sS'date'
p278
S'Sun Jul 21 22:11:01 2019'
p279
sS'response'
p280
g63
(S's\x94\x1f\x00\x00<div><table><tr><td style="font-weight:bold;vertical-align:top;">body</td><td style="vertical-align:top;">:</td><td><div>&lt;cStringIO.StringO object at 0x10bb14e30&gt;</div></td></tr><tr><td style="font-weight:bold;vertical-align:top;">cookies</td><td style="vertical-align:top;">:</td><td><div><table><tr><td style="font-weight:bold;vertical-align:top;">session_id_web2py_start</td><td style="vertical-align:top;">:</td><td><div>82:f68700cd-e3c4-430b-a484-18e9a223608f<table><tr><td style="font-weight:bold;vertical-align:top;">comment</td><td style="vertical-align:top;">:</td><td><div></div></td></tr><tr><td style="font-weight:bold;vertical-align:top;">domain</td><td style="vertical-align:top;">:</td><td><div></div></td></tr><tr><td style="font-weight:bold;vertical-align:top;">expires</td><td style="vertical-align:top;">:</td><td><div></div></td></tr><tr><td style="font-weight:bold;vertical-align:top;">httponly</td><td style="vertical-align:top;">:</td><td><div></div></td></tr><tr><td style="font-weight:bold;vertical-align:top;">max-age</td><td style="vertical-align:top;">:</td><td><div></div></td></tr><tr><td style="font-weight:bold;vertical-align:top;">path</td><td style="vertical-align:top;">:</td><td><div>/</div></td></tr><tr><td style="font-weight:bold;vertical-align:top;">samesite</td><td style="vertical-align:top;">:</td><td><div></div></td></tr><tr><td style="font-weight:bold;vertical-align:top;">secure</td><td style="vertical-align:top;">:</td><td><div></div></td></tr><tr><td style="font-weight:bold;vertical-align:top;">version</td><td style="vertical-align:top;">:</td><td><div></div></td></tr></table></div></td></tr></table></div></td></tr><tr><td style="font-weight:bold;vertical-align:top;">delimiters</td><td style="vertical-align:top;">:</td><td><div><table><tr><td><div>{{</div></td></tr><tr><td><div>}}</div></td></tr></table></div></td></tr><tr><td style="font-weight:bold;vertical-align:top;">files</td><td style="vertical-align:top;">:</td><td><div><table></table></div></td></tr><tr><td style="font-weight:bold;vertical-align:top;">flash</td><td style="vertical-align:top;">:</td><td><div></div></td></tr><tr><td style="font-weight:bold;vertical-align:top;">form_label_separator</td><td style="vertical-align:top;">:</td><td><div></div></td></tr><tr><td style="font-weight:bold;vertical-align:top;">formstyle</td><td style="vertical-align:top;">:</td><td><div>bootstrap3_inline</div></td></tr><tr><td style="font-weight:bold;vertical-align:top;">generic_patterns</td><td style="vertical-align:top;">:</td><td><div><table><tr><td><div>*</div></td></tr></table></div></td></tr><tr><td style="font-weight:bold;vertical-align:top;">google_analytics_id</td><td style="vertical-align:top;">:</td><td><div>None</div></td></tr><tr><td style="font-weight:bold;vertical-align:top;">headers</td><td style="vertical-align:top;">:</td><td><div><table><tr><td style="font-weight:bold;vertical-align:top;">X-Powered-By</td><td style="vertical-align:top;">:</td><td><div>web2py</div></td></tr></table></div></td></tr><tr><td style="font-weight:bold;vertical-align:top;">logo</td><td style="vertical-align:top;">:</td><td><div><a class="navbar-brand" href="http://www.web2py.com/" id="web2py-logo"><b>web<span>2</span>py</b>&trade;&nbsp;</a></div></td></tr><tr><td style="font-weight:bold;vertical-align:top;">menu</td><td style="vertical-align:top;">:</td><td><div><table><tr><td><div><table><tr><td><div>Buy</div></td></tr><tr><td><div>False</div></td></tr><tr><td><div>/web2py_start/default/index</div></td></tr><tr><td><div><table></table></div></td></tr></table></div></td></tr><tr><td><div><table><tr><td><div>Sell</div></td></tr><tr><td><div>False</div></td></tr><tr><td><div>/web2py_start/default/sell</div></td></tr><tr><td><div><table></table></div></td></tr></table></div></td></tr><tr><td><div><table><tr><td><div>Past Orders</div></td></tr><tr><td><div>False</div></td></tr><tr><td><div>/web2py_start/default/past_orders</div></td></tr><tr><td><div><table></table></div></td></tr></table></div></td></tr></table></div></td></tr><tr><td style="font-weight:bold;vertical-align:top;">meta</td><td style="vertical-align:top;">:</td><td><div><table><tr><td style="font-weight:bold;vertical-align:top;">author</td><td style="vertical-align:top;">:</td><td><div>Patrick Toral &lt;ptoral32@gmail.com&gt;</div></td></tr><tr><td style="font-weight:bold;vertical-align:top;">description</td><td style="vertical-align:top;">:</td><td><div>Creating this for learning purposes will write blog post about it</div></td></tr><tr><td style="font-weight:bold;vertical-align:top;">generator</td><td style="vertical-align:top;">:</td><td><div>Web2py Web Framework</div></td></tr><tr><td style="font-weight:bold;vertical-align:top;">keywords</td><td style="vertical-align:top;">:</td><td><div><table><tr><td><div>web2py</div></td></tr><tr><td><div>python</div></td></tr><tr><td><div>framework</div></td></tr></table></div></td></tr></table></div></td></tr><tr><td style="font-weight:bold;vertical-align:top;">models_to_run</td><td style="vertical-align:top;">:</td><td><div><table><tr><td><div>^\\w+\\.py$</div></td></tr><tr><td><div>^default/\\w+\\.py$</div></td></tr><tr><td><div>^default/sell/\\w+\\.py$</div></td></tr></table></div></td></tr><tr><td style="font-weight:bold;vertical-align:top;">postprocessing</td><td style="vertical-align:top;">:</td><td><div><table></table></div></td></tr><tr><td style="font-weight:bold;vertical-align:top;">session_client</td><td style="vertical-align:top;">:</td><td><div>127.0.0.1</div></td></tr><tr><td style="font-weight:bold;vertical-align:top;">session_cookie_compression_level</td><td style="vertical-align:top;">:</td><td><div>None</div></td></tr><tr><td style="font-weight:bold;vertical-align:top;">session_cookie_expires</td><td style="vertical-align:top;">:</td><td><div>None</div></td></tr><tr><td style="font-weight:bold;vertical-align:top;">session_data_name</td><td style="vertical-align:top;">:</td><td><div>session_data_web2py_start</div></td></tr><tr><td style="font-weight:bold;vertical-align:top;">session_db_record_id</td><td style="vertical-align:top;">:</td><td><div>82L</div></td></tr><tr><td style="font-weight:bold;vertical-align:top;">session_db_table</td><td style="vertical-align:top;">:</td><td><div>&lt;Table web2py_session_web2py_start (id, locked, client_ip, created_datetime, modified_datetime, unique_key, session_data)&gt;</div></td></tr><tr><td style="font-weight:bold;vertical-align:top;">session_db_unique_key</td><td style="vertical-align:top;">:</td><td><div>f68700cd-e3c4-430b-a484-18e9a223608f</div></td></tr><tr><td style="font-weight:bold;vertical-align:top;">session_hash</td><td style="vertical-align:top;">:</td><td><div>a6a913f19bfe9ac7dddb76fa7203eb50</div></td></tr><tr><td style="font-weight:bold;vertical-align:top;">session_id</td><td style="vertical-align:top;">:</td><td><div>82:f68700cd-e3c4-430b-a484-18e9a223608f</div></td></tr><tr><td style="font-weight:bold;vertical-align:top;">session_id_name</td><td style="vertical-align:top;">:</td><td><div>session_id_web2py_start</div></td></tr><tr><td style="font-weight:bold;vertical-align:top;">session_masterapp</td><td style="vertical-align:top;">:</td><td><div>web2py_start</div></td></tr><tr><td style="font-weight:bold;vertical-align:top;">session_new</td><td style="vertical-align:top;">:</td><td><div>False</div></td></tr><tr><td style="font-weight:bold;vertical-align:top;">session_storage_type</td><td style="vertical-align:top;">:</td><td><div>db</div></td></tr><tr><td style="font-weight:bold;vertical-align:top;">status</td><td style="vertical-align:top;">:</td><td><div>200</div></td></tr><tr><td style="font-weight:bold;vertical-align:top;">subtitle</td><td style="vertical-align:top;">:</td><td><div></div></td></tr><tr><td style="font-weight:bold;vertical-align:top;">title</td><td style="vertical-align:top;">:</td><td><div>Web2Py Start</div></td></tr><tr><td style="font-weight:bold;vertical-align:top;">view</td><td style="vertical-align:top;">:</td><td><div>default/sell.html</div></td></tr></table></div>'
tRp281
sS'locals'
p282
(dp283
S'query'
p284
S'\'INSERT INTO "Product_Table"("total_ratings","tot...1,0.0,\\\'What\\\',\\\'What\\\',0.0,1,\\\'2019-07-22 05:11:01\\\');\''
p285
sS'self'
p286
S'<pydal.adapters.sqlite.SQLite object>'
p287
sS'e'
S"IntegrityError('FOREIGN KEY constraint failed',)"
p288
sS'fields'
p289
S"[(<pydal.objects.Field object>, 0), (<pydal.objects.Field object>, 0), (<pydal.objects.Field object>, <Row {'username': 'apple', 'registration_id': ''... 11L, 'date_joined': datetime.date(2019, 7, 18)}>), (<pydal.objects.Field object>, 0), (<pydal.objects.Field object>, 'What'), (<pydal.objects.Field object>, 'What'), (<pydal.objects.Field object>, 0.0), (<pydal.objects.Field object>, 1), (<pydal.objects.Field object>, datetime.datetime(2019, 7, 22, 5, 11, 1, 146593))]"
p290
sS'table'
p291
S'<Table Product_Table (id, product_name, product_...rating, total_stock, product_owner, date_posted)>'
p292
sssS'traceback'
p293
S'Traceback (most recent call last):\n  File "/Users/tatrickporal/Desktop/CMPS183/web2py/gluon/restricted.py", line 219, in restricted\n    exec(ccode, environment)\n  File "/Users/tatrickporal/Desktop/CMPS183/web2py/applications/web2py_start/controllers/default.py", line 143, in <module>\n  File "/Users/tatrickporal/Desktop/CMPS183/web2py/gluon/globals.py", line 421, in <lambda>\n    self._caller = lambda f: f()\n  File "/Users/tatrickporal/Desktop/CMPS183/web2py/gluon/tools.py", line 3869, in f\n    return action(*a, **b)\n  File "/Users/tatrickporal/Desktop/CMPS183/web2py/applications/web2py_start/controllers/default.py", line 101, in sell\n    if form.process().accepted:\n  File "/Users/tatrickporal/Desktop/CMPS183/web2py/gluon/html.py", line 2326, in process\n    self.validate(**kwargs)\n  File "/Users/tatrickporal/Desktop/CMPS183/web2py/gluon/html.py", line 2264, in validate\n    if self.accepts(**kwargs):\n  File "/Users/tatrickporal/Desktop/CMPS183/web2py/gluon/sqlhtml.py", line 1989, in accepts\n    self.vars.id = self.table.insert(**fields)\n  File "/Users/tatrickporal/Desktop/CMPS183/web2py/gluon/packages/dal/pydal/objects.py", line 762, in insert\n    ret = self._db._adapter.insert(self, row.op_values())\n  File "/Users/tatrickporal/Desktop/CMPS183/web2py/gluon/packages/dal/pydal/adapters/base.py", line 487, in insert\n    raise e\nIntegrityError: FOREIGN KEY constraint failed\n'
p294
s.